; Function Attrs: null_pointer_is_valid sspstrong uwtable
define hidden noalias noundef ptr @extcap_get_tool_by_ifname(ptr noundef %0) local_unnamed_addr #0 {
  tail call fastcc void @extcap_ensure_all_interfaces_loaded()
  %2 = icmp ne ptr %0, null
  %3 = load ptr, ptr @_tool_for_ifname, align 8
  %4 = icmp ne ptr %3, null
  %or.cond = select i1 %2, i1 %4, i1 false
  br i1 %or.cond, label %5, label %extcap_ensure_interface.exit

5:                                                ; preds = %1
  %6 = tail call ptr @g_hash_table_lookup(ptr noundef nonnull %3, ptr noundef nonnull %0)
  %.not.not = icmp eq ptr %6, null
  br i1 %.not.not, label %extcap_ensure_interface.exit, label %7

7:                                                ; preds = %5
  %8 = load i8, ptr getelementptr inbounds nuw (i8, ptr @prefs, i64 361), align 1, !range !6, !noundef !7
  %9 = trunc nuw i8 %8 to i1
  br i1 %9, label %extcap_ensure_interface.exit, label %10

10:                                               ; preds = %7
  %11 = load ptr, ptr @_loaded_interfaces, align 8
  %.not25.i = icmp eq ptr %11, null
  br i1 %.not25.i, label %12, label %14

12:                                               ; preds = %10
  %13 = tail call ptr @g_hash_table_new_full(ptr noundef nonnull @g_str_hash, ptr noundef nonnull @g_str_equal, ptr noundef nonnull @g_free, ptr noundef nonnull @extcap_free_interface)
  store ptr %13, ptr @_loaded_interfaces, align 8
  br label %14

14:                                               ; preds = %12, %10
  %15 = phi ptr [ %13, %12 ], [ %11, %10 ]
  %16 = tail call ptr @g_hash_table_lookup(ptr noundef %15, ptr noundef nonnull %6)
  br label %extcap_ensure_interface.exit

extcap_ensure_interface.exit:                     ; preds = %7, %14, %1, %5
  ret ptr null
}